; Function Attrs: mustprogress uwtable
define noundef zeroext i1 @_ZNK19OpenColorIO_v2_5dev13ColorSpaceSeteqERKS0_(ptr noundef nonnull readonly align 8 captures(none) dereferenceable(8) %0, ptr noundef nonnull readonly align 8 captures(none) dereferenceable(8) %1) local_unnamed_addr #0 align 2 {
  %3 = load ptr, ptr %0, align 8, !tbaa !22
  %4 = load ptr, ptr %1, align 8, !tbaa !22
  %5 = icmp eq ptr %3, %4
  br i1 %5, label %_ZNK19OpenColorIO_v2_5dev13ColorSpaceSet4ImpleqERKS1_.exit, label %6

6:                                                ; preds = %2
  %7 = getelementptr inbounds nuw i8, ptr %3, i64 8
  %8 = load ptr, ptr %7, align 8, !tbaa !28
  %9 = load ptr, ptr %3, align 8, !tbaa !25
  %10 = ptrtoint ptr %8 to i64
  %11 = ptrtoint ptr %9 to i64
  %12 = sub i64 %10, %11
  %13 = getelementptr inbounds nuw i8, ptr %4, i64 8
  %14 = load ptr, ptr %13, align 8, !tbaa !28
  %15 = load ptr, ptr %4, align 8, !tbaa !25
  %16 = ptrtoint ptr %14 to i64
  %17 = ptrtoint ptr %15 to i64
  %18 = sub i64 %16, %17
  %.not.i = icmp eq i64 %12, %18
  br i1 %.not.i, label %.preheader.i, label %_ZNK19OpenColorIO_v2_5dev13ColorSpaceSet4ImpleqERKS1_.exit

.preheader.i:                                     ; preds = %6
  %.not1618.i = icmp eq ptr %9, %8
  br i1 %.not1618.i, label %_ZNK19OpenColorIO_v2_5dev13ColorSpaceSet4ImpleqERKS1_.exit, label %.lr.ph.i

.lr.ph.i:                                         ; preds = %.preheader.i, %.lr.ph.i
  %.sroa.013.019.i = phi ptr [ %22, %.lr.ph.i ], [ %9, %.preheader.i ]
  %19 = load ptr, ptr %.sroa.013.019.i, align 8, !tbaa !36
  %20 = tail call noundef ptr @_ZNK19OpenColorIO_v2_5dev10ColorSpace7getNameEv(ptr noundef nonnull align 8 dereferenceable(8) %19) #23
  %21 = tail call noundef i32 @_ZNK19OpenColorIO_v2_5dev13ColorSpaceSet4Impl8getIndexEPKc(ptr noundef nonnull align 8 dereferenceable(24) %4, ptr noundef %20)
  %.not17.not.i.not = icmp ne i32 %21, -1
  %22 = getelementptr inbounds nuw i8, ptr %.sroa.013.019.i, i64 16
  %.not16.i = icmp ne ptr %22, %8
  %or.cond.not = select i1 %.not17.not.i.not, i1 %.not16.i, i1 false
  br i1 %or.cond.not, label %.lr.ph.i, label %_ZNK19OpenColorIO_v2_5dev13ColorSpaceSet4ImpleqERKS1_.exit

_ZNK19OpenColorIO_v2_5dev13ColorSpaceSet4ImpleqERKS1_.exit: ; preds = %.lr.ph.i, %2, %6, %.preheader.i
  %.0.i = phi i1 [ true, %2 ], [ false, %6 ], [ true, %.preheader.i ], [ %.not17.not.i.not, %.lr.ph.i ]
  ret i1 %.0.i
}